target datalayout = "e-m:e-p270:32:32-p271:32:32-p272:64:64-i64:64-i128:128-f80:128-n8:16:32:64-S128"
target triple = "x86_64-pc-linux-gnu"

%struct.mcclellan = type { i16, i32, i16, i16, i32, i32, i32, i16, i16, i16, i16, i8, i8, i8, i8, [256 x i8], i32, i32, i32, i32 }
%struct.mq = type { ptr, i32, i32, ptr, ptr, i64, ptr, i64, ptr, i64, ptr, i8, ptr, ptr, [10 x %struct.mq_item] }
%struct.mq_item = type { i32, i64, i64 }
%struct.unaligned = type { i16 }

; Function Attrs: alwaysinline nounwind uwtable
define internal void @unaligned_store_u16(ptr noundef %0, i16 noundef zeroext %1) #2 {
  %3 = alloca ptr, align 8
  %4 = alloca i16, align 2
  %5 = alloca ptr, align 8
  store ptr %0, ptr %3, align 8
  store i16 %1, ptr %4, align 2
  call void @llvm.lifetime.start.p0(i64 8, ptr %5) #10
  %6 = load ptr, ptr %3, align 8
  store ptr %6, ptr %5, align 8
  %7 = load i16, ptr %4, align 2
  %8 = load ptr, ptr %5, align 8
  %9 = getelementptr inbounds nuw %struct.unaligned, ptr %8, i32 0, i32 0
  store i16 %7, ptr %9, align 1
  call void @llvm.lifetime.end.p0(i64 8, ptr %5) #10
  ret void
}

; Function Attrs: nounwind uwtable
define hidden signext i8 @nfaExecMcClellan16_queueCompressState(ptr noundef %0, ptr noundef %1, i64 noundef %2) #0 {
  %4 = alloca ptr, align 8
  %5 = alloca ptr, align 8
  %6 = alloca i64, align 8
  %7 = alloca ptr, align 8
  %8 = alloca ptr, align 8
  %9 = alloca ptr, align 8
  store ptr %0, ptr %4, align 8
  store ptr %1, ptr %5, align 8
  store i64 %2, ptr %6, align 8
  call void @llvm.lifetime.start.p0(i64 8, ptr %7) #10
  %10 = load ptr, ptr %4, align 8
  %11 = getelementptr inbounds nuw i8, ptr %10, i64 64
  store ptr %11, ptr %7, align 8
  call void @llvm.lifetime.start.p0(i64 8, ptr %8) #10
  %12 = load ptr, ptr %5, align 8
  %13 = getelementptr inbounds nuw %struct.mq, ptr %12, i32 0, i32 4
  %14 = load ptr, ptr %13, align 8
  store ptr %14, ptr %8, align 8
  call void @llvm.lifetime.start.p0(i64 8, ptr %9) #10
  %15 = load ptr, ptr %5, align 8
  %16 = getelementptr inbounds nuw %struct.mq, ptr %15, i32 0, i32 3
  %17 = load ptr, ptr %16, align 8
  store ptr %17, ptr %9, align 8
  %18 = load ptr, ptr %8, align 8
  %19 = load ptr, ptr %9, align 8
  %20 = load i16, ptr %19, align 2
  call void @unaligned_store_u16(ptr noundef %18, i16 noundef zeroext %20)
  %21 = load ptr, ptr %7, align 8
  %22 = getelementptr inbounds nuw %struct.mcclellan, ptr %21, i32 0, i32 14
  %23 = load i8, ptr %22, align 1
  %24 = icmp ne i8 %23, 0
  br i1 %24, label %25, label %31

25:                                               ; preds = %3
  %26 = load ptr, ptr %8, align 8
  %27 = getelementptr inbounds i16, ptr %26, i64 1
  %28 = load ptr, ptr %9, align 8
  %29 = getelementptr inbounds i16, ptr %28, i64 1
  %30 = load i16, ptr %29, align 2
  call void @unaligned_store_u16(ptr noundef %27, i16 noundef zeroext %30)
  br label %31

31:                                               ; preds = %25, %3
  call void @llvm.lifetime.end.p0(i64 8, ptr %9) #10
  call void @llvm.lifetime.end.p0(i64 8, ptr %8) #10
  call void @llvm.lifetime.end.p0(i64 8, ptr %7) #10
  ret i8 0
}