; Function Attrs: mustprogress nofree norecurse nosync nounwind willreturn memory(readwrite, inaccessiblemem: none) uwtable
define hidden noundef signext i8 @nfaExecMcClellan16_queueCompressState(ptr noundef readonly captures(none) %0, ptr noundef readonly captures(none) %1, i64 noundef %2) local_unnamed_addr #7 {
  %4 = getelementptr inbounds nuw i8, ptr %1, i64 24
  %5 = load ptr, ptr %4, align 8
  %6 = getelementptr inbounds nuw i8, ptr %1, i64 16
  %7 = load ptr, ptr %6, align 8
  %8 = load i16, ptr %7, align 2
  store i16 %8, ptr %5, align 1
  %9 = getelementptr inbounds nuw i8, ptr %0, i64 99
  %10 = load i8, ptr %9, align 1
  %.not = icmp eq i8 %10, 0
  br i1 %.not, label %15, label %11

11:                                               ; preds = %3
  %12 = getelementptr inbounds nuw i8, ptr %5, i64 2
  %13 = getelementptr inbounds nuw i8, ptr %7, i64 2
  %14 = load i16, ptr %13, align 2
  store i16 %14, ptr %12, align 1
  br label %15

15:                                               ; preds = %11, %3
  ret i8 0
}